; Function Attrs: nounwind uwtable
define hidden range(i32 0, 2) i32 @_cmsReadUInt8Number(ptr noundef %0, ptr noundef writeonly %1) local_unnamed_addr #2 {
  %3 = alloca i8, align 1
  %4 = getelementptr inbounds i8, ptr %0, i64 280
  %5 = load ptr, ptr %4, align 8
  %6 = call i32 %5(ptr noundef %0, ptr noundef nonnull %3, i32 noundef 1, i32 noundef 1) #12
  %.not = icmp eq i32 %6, 1
  br i1 %.not, label %7, label %10

7:                                                ; preds = %2
  %.not5 = icmp eq ptr %1, null
  br i1 %.not5, label %10, label %8

8:                                                ; preds = %7
  %9 = load i8, ptr %3, align 1
  store i8 %9, ptr %1, align 1
  br label %10

10:                                               ; preds = %7, %8, %2
  %.0 = phi i32 [ 0, %2 ], [ 1, %8 ], [ 1, %7 ]
  ret i32 %.0
}